target datalayout = "e-m:e-p270:32:32-p271:32:32-p272:64:64-i64:64-i128:128-f80:128-n8:16:32:64-S128"
target triple = "x86_64-pc-linux-gnu"

%struct.opj_jp2 = type { ptr, ptr, ptr, i32, i32, i32, i32, i32, i32, i32, i32, i32, i32, i32, i32, i32, i32, ptr, ptr, i64, i64, i32, i32, i32, %struct.opj_jp2_color, i32, i8, i8 }
%struct.opj_jp2_color = type { ptr, i32, ptr, ptr, i8 }
%struct.opj_jp2_cdef = type { ptr, i16 }
%struct.opj_jp2_cdef_info = type { i16, i16, i16 }

@.str.73 = private unnamed_addr constant [33 x i8] c"Insufficient data for CDEF box.\0A\00", align 1
@.str.74 = private unnamed_addr constant [61 x i8] c"Number of channel description is equal to zero in CDEF box.\0A\00", align 1

; Function Attrs: nounwind uwtable
define internal i32 @opj_jp2_read_cdef(ptr noundef %0, ptr noundef %1, i32 noundef %2, ptr noundef %3) #0 {
  %5 = alloca i32, align 4
  %6 = alloca ptr, align 8
  %7 = alloca ptr, align 8
  %8 = alloca i32, align 4
  %9 = alloca ptr, align 8
  %10 = alloca ptr, align 8
  %11 = alloca i16, align 2
  %12 = alloca i32, align 4
  %13 = alloca i32, align 4
  store ptr %0, ptr %6, align 8, !tbaa !3
  store ptr %1, ptr %7, align 8, !tbaa !106
  store i32 %2, ptr %8, align 4, !tbaa !39
  store ptr %3, ptr %9, align 8, !tbaa !12
  call void @llvm.lifetime.start.p0(i64 8, ptr %10) #5
  call void @llvm.lifetime.start.p0(i64 2, ptr %11) #5
  call void @llvm.lifetime.start.p0(i64 4, ptr %12) #5
  %14 = load ptr, ptr %6, align 8, !tbaa !3
  %15 = getelementptr inbounds nuw %struct.opj_jp2, ptr %14, i32 0, i32 24
  %16 = getelementptr inbounds nuw %struct.opj_jp2_color, ptr %15, i32 0, i32 2
  %17 = load ptr, ptr %16, align 8, !tbaa !33
  %18 = icmp ne ptr %17, null
  br i1 %18, label %19, label %20

19:                                               ; preds = %4
  store i32 0, ptr %5, align 4
  store i32 1, ptr %13, align 4
  br label %128

20:                                               ; preds = %4
  %21 = load i32, ptr %8, align 4, !tbaa !39
  %22 = icmp ult i32 %21, 2
  br i1 %22, label %23, label %26

23:                                               ; preds = %20
  %24 = load ptr, ptr %9, align 8, !tbaa !12
  %25 = call i32 (ptr, i32, ptr, ...) @opj_event_msg(ptr noundef %24, i32 noundef 1, ptr noundef @.str.73)
  store i32 0, ptr %5, align 4
  store i32 1, ptr %13, align 4
  br label %128

26:                                               ; preds = %20
  %27 = load ptr, ptr %7, align 8, !tbaa !106
  call void @opj_read_bytes_LE(ptr noundef %27, ptr noundef %12, i32 noundef 2)
  %28 = load ptr, ptr %7, align 8, !tbaa !106
  %29 = getelementptr inbounds i8, ptr %28, i64 2
  store ptr %29, ptr %7, align 8, !tbaa !106
  %30 = load i32, ptr %12, align 4, !tbaa !39
  %31 = trunc i32 %30 to i16
  %32 = zext i16 %31 to i32
  %33 = icmp eq i32 %32, 0
  br i1 %33, label %34, label %37

34:                                               ; preds = %26
  %35 = load ptr, ptr %9, align 8, !tbaa !12
  %36 = call i32 (ptr, i32, ptr, ...) @opj_event_msg(ptr noundef %35, i32 noundef 1, ptr noundef @.str.74)
  store i32 0, ptr %5, align 4
  store i32 1, ptr %13, align 4
  br label %128

37:                                               ; preds = %26
  %38 = load i32, ptr %8, align 4, !tbaa !39
  %39 = load i32, ptr %12, align 4, !tbaa !39
  %40 = trunc i32 %39 to i16
  %41 = zext i16 %40 to i32
  %42 = mul i32 %41, 6
  %43 = add i32 2, %42
  %44 = icmp ult i32 %38, %43
  br i1 %44, label %45, label %48

45:                                               ; preds = %37
  %46 = load ptr, ptr %9, align 8, !tbaa !12
  %47 = call i32 (ptr, i32, ptr, ...) @opj_event_msg(ptr noundef %46, i32 noundef 1, ptr noundef @.str.73)
  store i32 0, ptr %5, align 4
  store i32 1, ptr %13, align 4
  br label %128

48:                                               ; preds = %37
  %49 = load i32, ptr %12, align 4, !tbaa !39
  %50 = zext i32 %49 to i64
  %51 = mul i64 %50, 6
  %52 = call ptr @opj_malloc(i64 noundef %51)
  store ptr %52, ptr %10, align 8, !tbaa !117
  %53 = load ptr, ptr %10, align 8, !tbaa !117
  %54 = icmp ne ptr %53, null
  br i1 %54, label %56, label %55

55:                                               ; preds = %48
  store i32 0, ptr %5, align 4
  store i32 1, ptr %13, align 4
  br label %128

56:                                               ; preds = %48
  %57 = call ptr @opj_malloc(i64 noundef 16)
  %58 = load ptr, ptr %6, align 8, !tbaa !3
  %59 = getelementptr inbounds nuw %struct.opj_jp2, ptr %58, i32 0, i32 24
  %60 = getelementptr inbounds nuw %struct.opj_jp2_color, ptr %59, i32 0, i32 2
  store ptr %57, ptr %60, align 8, !tbaa !33
  %61 = load ptr, ptr %6, align 8, !tbaa !3
  %62 = getelementptr inbounds nuw %struct.opj_jp2, ptr %61, i32 0, i32 24
  %63 = getelementptr inbounds nuw %struct.opj_jp2_color, ptr %62, i32 0, i32 2
  %64 = load ptr, ptr %63, align 8, !tbaa !33
  %65 = icmp ne ptr %64, null
  br i1 %65, label %68, label %66

66:                                               ; preds = %56
  %67 = load ptr, ptr %10, align 8, !tbaa !117
  call void @opj_free(ptr noundef %67)
  store i32 0, ptr %5, align 4
  store i32 1, ptr %13, align 4
  br label %128

68:                                               ; preds = %56
  %69 = load ptr, ptr %10, align 8, !tbaa !117
  %70 = load ptr, ptr %6, align 8, !tbaa !3
  %71 = getelementptr inbounds nuw %struct.opj_jp2, ptr %70, i32 0, i32 24
  %72 = getelementptr inbounds nuw %struct.opj_jp2_color, ptr %71, i32 0, i32 2
  %73 = load ptr, ptr %72, align 8, !tbaa !33
  %74 = getelementptr inbounds nuw %struct.opj_jp2_cdef, ptr %73, i32 0, i32 0
  store ptr %69, ptr %74, align 8, !tbaa !76
  %75 = load i32, ptr %12, align 4, !tbaa !39
  %76 = trunc i32 %75 to i16
  %77 = load ptr, ptr %6, align 8, !tbaa !3
  %78 = getelementptr inbounds nuw %struct.opj_jp2, ptr %77, i32 0, i32 24
  %79 = getelementptr inbounds nuw %struct.opj_jp2_color, ptr %78, i32 0, i32 2
  %80 = load ptr, ptr %79, align 8, !tbaa !33
  %81 = getelementptr inbounds nuw %struct.opj_jp2_cdef, ptr %80, i32 0, i32 1
  store i16 %76, ptr %81, align 8, !tbaa !79
  store i16 0, ptr %11, align 2, !tbaa !118
  br label %82

82:                                               ; preds = %124, %68
  %83 = load i16, ptr %11, align 2, !tbaa !118
  %84 = zext i16 %83 to i32
  %85 = load ptr, ptr %6, align 8, !tbaa !3
  %86 = getelementptr inbounds nuw %struct.opj_jp2, ptr %85, i32 0, i32 24
  %87 = getelementptr inbounds nuw %struct.opj_jp2_color, ptr %86, i32 0, i32 2
  %88 = load ptr, ptr %87, align 8, !tbaa !33
  %89 = getelementptr inbounds nuw %struct.opj_jp2_cdef, ptr %88, i32 0, i32 1
  %90 = load i16, ptr %89, align 8, !tbaa !79
  %91 = zext i16 %90 to i32
  %92 = icmp slt i32 %84, %91
  br i1 %92, label %93, label %127

93:                                               ; preds = %82
  %94 = load ptr, ptr %7, align 8, !tbaa !106
  call void @opj_read_bytes_LE(ptr noundef %94, ptr noundef %12, i32 noundef 2)
  %95 = load ptr, ptr %7, align 8, !tbaa !106
  %96 = getelementptr inbounds i8, ptr %95, i64 2
  store ptr %96, ptr %7, align 8, !tbaa !106
  %97 = load i32, ptr %12, align 4, !tbaa !39
  %98 = trunc i32 %97 to i16
  %99 = load ptr, ptr %10, align 8, !tbaa !117
  %100 = load i16, ptr %11, align 2, !tbaa !118
  %101 = zext i16 %100 to i64
  %102 = getelementptr inbounds nuw %struct.opj_jp2_cdef_info, ptr %99, i64 %101
  %103 = getelementptr inbounds nuw %struct.opj_jp2_cdef_info, ptr %102, i32 0, i32 0
  store i16 %98, ptr %103, align 2, !tbaa !80
  %104 = load ptr, ptr %7, align 8, !tbaa !106
  call void @opj_read_bytes_LE(ptr noundef %104, ptr noundef %12, i32 noundef 2)
  %105 = load ptr, ptr %7, align 8, !tbaa !106
  %106 = getelementptr inbounds i8, ptr %105, i64 2
  store ptr %106, ptr %7, align 8, !tbaa !106
  %107 = load i32, ptr %12, align 4, !tbaa !39
  %108 = trunc i32 %107 to i16
  %109 = load ptr, ptr %10, align 8, !tbaa !117
  %110 = load i16, ptr %11, align 2, !tbaa !118
  %111 = zext i16 %110 to i64
  %112 = getelementptr inbounds nuw %struct.opj_jp2_cdef_info, ptr %109, i64 %111
  %113 = getelementptr inbounds nuw %struct.opj_jp2_cdef_info, ptr %112, i32 0, i32 1
  store i16 %108, ptr %113, align 2, !tbaa !82
  %114 = load ptr, ptr %7, align 8, !tbaa !106
  call void @opj_read_bytes_LE(ptr noundef %114, ptr noundef %12, i32 noundef 2)
  %115 = load ptr, ptr %7, align 8, !tbaa !106
  %116 = getelementptr inbounds i8, ptr %115, i64 2
  store ptr %116, ptr %7, align 8, !tbaa !106
  %117 = load i32, ptr %12, align 4, !tbaa !39
  %118 = trunc i32 %117 to i16
  %119 = load ptr, ptr %10, align 8, !tbaa !117
  %120 = load i16, ptr %11, align 2, !tbaa !118
  %121 = zext i16 %120 to i64
  %122 = getelementptr inbounds nuw %struct.opj_jp2_cdef_info, ptr %119, i64 %121
  %123 = getelementptr inbounds nuw %struct.opj_jp2_cdef_info, ptr %122, i32 0, i32 2
  store i16 %118, ptr %123, align 2, !tbaa !83
  br label %124

124:                                              ; preds = %93
  %125 = load i16, ptr %11, align 2, !tbaa !118
  %126 = add i16 %125, 1
  store i16 %126, ptr %11, align 2, !tbaa !118
  br label %82, !llvm.loop !184

127:                                              ; preds = %82
  store i32 1, ptr %5, align 4
  store i32 1, ptr %13, align 4
  br label %128

128:                                              ; preds = %127, %66, %55, %45, %34, %23, %19
  call void @llvm.lifetime.end.p0(i64 4, ptr %12) #5
  call void @llvm.lifetime.end.p0(i64 2, ptr %11) #5
  call void @llvm.lifetime.end.p0(i64 8, ptr %10) #5
  %129 = load i32, ptr %5, align 4
  ret i32 %129
}