; Function Attrs: nounwind uwtable
define internal range(i32 0, 2) i32 @opj_jp2_read_cdef(ptr noundef captures(none) %0, ptr noundef %1, i32 noundef %2, ptr noundef %3) #0 {
  %5 = alloca i32, align 4
  call void @llvm.lifetime.start.p0(i64 4, ptr nonnull %5) #6
  %6 = getelementptr inbounds nuw i8, ptr %0, i64 144
  %7 = load ptr, ptr %6, align 8, !tbaa !70
  %.not = icmp eq ptr %7, null
  br i1 %.not, label %8, label %.loopexit

8:                                                ; preds = %4
  %9 = icmp ult i32 %2, 2
  br i1 %9, label %10, label %12

10:                                               ; preds = %8
  %11 = tail call i32 (ptr, i32, ptr, ...) @opj_event_msg(ptr noundef %3, i32 noundef 1, ptr noundef nonnull @.str.73) #6
  br label %.loopexit

12:                                               ; preds = %8
  call void @opj_read_bytes_LE(ptr noundef %1, ptr noundef nonnull %5, i32 noundef 2) #6
  %13 = load i32, ptr %5, align 4, !tbaa !46
  %14 = and i32 %13, 65535
  %15 = icmp eq i32 %14, 0
  br i1 %15, label %16, label %18

16:                                               ; preds = %12
  %17 = call i32 (ptr, i32, ptr, ...) @opj_event_msg(ptr noundef %3, i32 noundef 1, ptr noundef nonnull @.str.74) #6
  br label %.loopexit

18:                                               ; preds = %12
  %19 = mul nuw nsw i32 %14, 6
  %20 = add nuw nsw i32 %19, 2
  %21 = icmp ult i32 %2, %20
  br i1 %21, label %22, label %24

22:                                               ; preds = %18
  %23 = call i32 (ptr, i32, ptr, ...) @opj_event_msg(ptr noundef %3, i32 noundef 1, ptr noundef nonnull @.str.73) #6
  br label %.loopexit

24:                                               ; preds = %18
  %25 = zext i32 %13 to i64
  %26 = mul nuw nsw i64 %25, 6
  %27 = call ptr @opj_malloc(i64 noundef %26) #6
  %.not36 = icmp eq ptr %27, null
  br i1 %.not36, label %.loopexit, label %28

28:                                               ; preds = %24
  %29 = call ptr @opj_malloc(i64 noundef 16) #6
  store ptr %29, ptr %6, align 8, !tbaa !70
  %.not37 = icmp eq ptr %29, null
  br i1 %.not37, label %30, label %31

30:                                               ; preds = %28
  call void @opj_free(ptr noundef nonnull %27) #6
  br label %.loopexit

31:                                               ; preds = %28
  store ptr %27, ptr %29, align 8, !tbaa !22
  %32 = load i32, ptr %5, align 4, !tbaa !46
  %33 = trunc i32 %32 to i16
  %34 = getelementptr inbounds nuw i8, ptr %29, i64 8
  store i16 %33, ptr %34, align 8, !tbaa !26
  %.not40 = icmp eq i16 %33, 0
  br i1 %.not40, label %.loopexit, label %.lr.ph

.lr.ph:                                           ; preds = %31, %.lr.ph
  %indvars.iv = phi i64 [ %indvars.iv.next, %.lr.ph ], [ 0, %31 ]
  %.pn38 = phi ptr [ %39, %.lr.ph ], [ %1, %31 ]
  %.031 = getelementptr inbounds nuw i8, ptr %.pn38, i64 2
  call void @opj_read_bytes_LE(ptr noundef nonnull %.031, ptr noundef nonnull %5, i32 noundef 2) #6
  %35 = getelementptr inbounds nuw i8, ptr %.pn38, i64 4
  %36 = load i32, ptr %5, align 4, !tbaa !46
  %37 = trunc i32 %36 to i16
  %38 = getelementptr inbounds nuw %struct.opj_jp2_cdef_info, ptr %27, i64 %indvars.iv
  store i16 %37, ptr %38, align 2, !tbaa !34
  call void @opj_read_bytes_LE(ptr noundef nonnull %35, ptr noundef nonnull %5, i32 noundef 2) #6
  %39 = getelementptr inbounds nuw i8, ptr %.pn38, i64 6
  %40 = load i32, ptr %5, align 4, !tbaa !46
  %41 = trunc i32 %40 to i16
  %42 = getelementptr inbounds nuw i8, ptr %38, i64 2
  store i16 %41, ptr %42, align 2, !tbaa !71
  call void @opj_read_bytes_LE(ptr noundef nonnull %39, ptr noundef nonnull %5, i32 noundef 2) #6
  %43 = load i32, ptr %5, align 4, !tbaa !46
  %44 = trunc i32 %43 to i16
  %45 = getelementptr inbounds nuw i8, ptr %38, i64 4
  store i16 %44, ptr %45, align 2, !tbaa !39
  %indvars.iv.next = add nuw nsw i64 %indvars.iv, 1
  %46 = load ptr, ptr %6, align 8, !tbaa !70
  %47 = getelementptr inbounds nuw i8, ptr %46, i64 8
  %48 = load i16, ptr %47, align 8, !tbaa !26
  %49 = zext i16 %48 to i64
  %50 = icmp samesign ult i64 %indvars.iv.next, %49
  br i1 %50, label %.lr.ph, label %.loopexit, !llvm.loop !150

.loopexit:                                        ; preds = %.lr.ph, %31, %24, %4, %30, %22, %16, %10
  %.030 = phi i32 [ 0, %10 ], [ 0, %16 ], [ 0, %22 ], [ 0, %30 ], [ 0, %4 ], [ 0, %24 ], [ 1, %31 ], [ 1, %.lr.ph ]
  call void @llvm.lifetime.end.p0(i64 4, ptr nonnull %5) #6
  ret i32 %.030
}